target datalayout = "e-m:e-p270:32:32-p271:32:32-p272:64:64-i64:64-i128:128-f80:128-n8:16:32:64-S128"
target triple = "x86_64-pc-linux-gnu"

%"struct.std::nothrow_t" = type { i8 }
%"class.marisa::Trie" = type { %"class.marisa::scoped_ptr" }
%"class.marisa::scoped_ptr" = type { ptr }
%"class.marisa::Exception" = type { %"class.std::exception", ptr, i32, i32, ptr }
%"class.std::exception" = type { ptr }
%"class.marisa::grimoire::io::Reader" = type <{ ptr, i32, [4 x i8], ptr, i8, [7 x i8] }>

@_ZSt7nothrow = external global %"struct.std::nothrow_t", align 1
@.str = private unnamed_addr constant [128 x i8] c"generated/home/dtcxzyw/WorkSpace/Projects/compilers/llvm-opt-benchmark/bench/opencc/OpenCC/deps/marisa-0.2.6/lib/marisa/trie.cc\00", align 1
@_ZTIN6marisa9ExceptionE = linkonce_odr constant { ptr, ptr, ptr } { ptr getelementptr inbounds (ptr, ptr @_ZTVN10__cxxabiv120__si_class_type_infoE, i64 2), ptr @_ZTSN6marisa9ExceptionE, ptr @_ZTISt9exception }, comdat, align 8
@.str.6 = private unnamed_addr constant [168 x i8] c"generated/home/dtcxzyw/WorkSpace/Projects/compilers/llvm-opt-benchmark/bench/opencc/OpenCC/deps/marisa-0.2.6/lib/marisa/trie.cc:45: MARISA_NULL_ERROR: filename == NULL\00", align 1
@.str.7 = private unnamed_addr constant [172 x i8] c"generated/home/dtcxzyw/WorkSpace/Projects/compilers/llvm-opt-benchmark/bench/opencc/OpenCC/deps/marisa-0.2.6/lib/marisa/trie.cc:48: MARISA_MEMORY_ERROR: temp.get() == NULL\00", align 1
@_ZTVN6marisa9ExceptionE = linkonce_odr unnamed_addr constant { [5 x ptr] } { [5 x ptr] [ptr null, ptr @_ZTIN6marisa9ExceptionE, ptr @_ZNSt9exceptionD2Ev, ptr @_ZN6marisa9ExceptionD0Ev, ptr @_ZNK6marisa9Exception4whatEv] }, comdat, align 8
@_ZTVSt9exception = available_externally unnamed_addr constant { [5 x ptr] } { [5 x ptr] [ptr null, ptr @_ZTISt9exception, ptr @_ZNSt9exceptionD1Ev, ptr @_ZNSt9exceptionD0Ev, ptr @_ZNKSt9exception4whatEv] }, align 8

; Function Attrs: inlinehint mustprogress nounwind uwtable
define linkonce_odr void @_ZSt4swapIPN6marisa8grimoire4trie9LoudsTrieEENSt9enable_ifIXsr6__and_ISt6__not_ISt15__is_tuple_likeIT_EESt21is_move_constructibleIS8_ESt18is_move_assignableIS8_EEE5valueEvE4typeERS8_SH_(ptr noundef nonnull align 8 dereferenceable(8) %0, ptr noundef nonnull align 8 dereferenceable(8) %1) #9 comdat {
  %3 = alloca ptr, align 8
  %4 = alloca ptr, align 8
  %5 = alloca ptr, align 8
  store ptr %0, ptr %3, align 8, !tbaa !72
  store ptr %1, ptr %4, align 8, !tbaa !72
  call void @llvm.lifetime.start.p0(i64 8, ptr %5) #3
  %6 = load ptr, ptr %3, align 8, !tbaa !72
  %7 = load ptr, ptr %6, align 8, !tbaa !17
  store ptr %7, ptr %5, align 8, !tbaa !17
  %8 = load ptr, ptr %4, align 8, !tbaa !72
  %9 = load ptr, ptr %8, align 8, !tbaa !17
  %10 = load ptr, ptr %3, align 8, !tbaa !72
  store ptr %9, ptr %10, align 8, !tbaa !17
  %11 = load ptr, ptr %5, align 8, !tbaa !17
  %12 = load ptr, ptr %4, align 8, !tbaa !72
  store ptr %11, ptr %12, align 8, !tbaa !17
  call void @llvm.lifetime.end.p0(i64 8, ptr %5) #3
  ret void
}

; Function Attrs: mustprogress nounwind uwtable
define linkonce_odr void @_ZNSt9exceptionC2Ev(ptr noundef nonnull align 8 dereferenceable(8) %0) unnamed_addr #5 comdat align 2 {
  %2 = alloca ptr, align 8
  store ptr %0, ptr %2, align 8, !tbaa !43
  %3 = load ptr, ptr %2, align 8
  store ptr getelementptr inbounds inrange(-16, 24) ({ [5 x ptr] }, ptr @_ZTVSt9exception, i32 0, i32 0, i32 2), ptr %3, align 8, !tbaa !24
  ret void
}

; Function Attrs: mustprogress nounwind uwtable
define linkonce_odr void @_ZN6marisa10scoped_ptrINS_8grimoire4trie9LoudsTrieEE4swapERS4_(ptr noundef nonnull align 8 dereferenceable(8) %0, ptr noundef nonnull align 8 dereferenceable(8) %1) #5 comdat align 2 {
  %3 = alloca ptr, align 8
  %4 = alloca ptr, align 8
  store ptr %0, ptr %3, align 8, !tbaa !8
  store ptr %1, ptr %4, align 8, !tbaa !8
  %5 = load ptr, ptr %3, align 8
  %6 = getelementptr inbounds nuw %"class.marisa::scoped_ptr", ptr %5, i32 0, i32 0
  %7 = load ptr, ptr %4, align 8, !tbaa !8
  %8 = getelementptr inbounds nuw %"class.marisa::scoped_ptr", ptr %7, i32 0, i32 0
  call void @_ZSt4swapIPN6marisa8grimoire4trie9LoudsTrieEENSt9enable_ifIXsr6__and_ISt6__not_ISt15__is_tuple_likeIT_EESt21is_move_constructibleIS8_ESt18is_move_assignableIS8_EEE5valueEvE4typeERS8_SH_(ptr noundef nonnull align 8 dereferenceable(8) %6, ptr noundef nonnull align 8 dereferenceable(8) %8) #3
  ret void
}

; Function Attrs: mustprogress nounwind uwtable
define linkonce_odr noundef ptr @_ZNK6marisa10scoped_ptrINS_8grimoire4trie9LoudsTrieEEptEv(ptr noundef nonnull align 8 dereferenceable(8) %0) #5 comdat align 2 {
  %2 = alloca ptr, align 8
  store ptr %0, ptr %2, align 8, !tbaa !8
  %3 = load ptr, ptr %2, align 8
  %4 = getelementptr inbounds nuw %"class.marisa::scoped_ptr", ptr %3, i32 0, i32 0
  %5 = load ptr, ptr %4, align 8, !tbaa !10
  ret ptr %5
}

; Function Attrs: mustprogress nounwind uwtable
define linkonce_odr noundef ptr @_ZNK6marisa10scoped_ptrINS_8grimoire4trie9LoudsTrieEE3getEv(ptr noundef nonnull align 8 dereferenceable(8) %0) #5 comdat align 2 {
  %2 = alloca ptr, align 8
  store ptr %0, ptr %2, align 8, !tbaa !8
  %3 = load ptr, ptr %2, align 8
  %4 = getelementptr inbounds nuw %"class.marisa::scoped_ptr", ptr %3, i32 0, i32 0
  %5 = load ptr, ptr %4, align 8, !tbaa !10
  ret ptr %5
}

; Function Attrs: mustprogress nounwind uwtable
define linkonce_odr void @_ZN6marisa10scoped_ptrINS_8grimoire4trie9LoudsTrieEEC2EPS3_(ptr noundef nonnull align 8 dereferenceable(8) %0, ptr noundef %1) unnamed_addr #5 comdat align 2 {
  %3 = alloca ptr, align 8
  %4 = alloca ptr, align 8
  store ptr %0, ptr %3, align 8, !tbaa !8
  store ptr %1, ptr %4, align 8, !tbaa !17
  %5 = load ptr, ptr %3, align 8
  %6 = getelementptr inbounds nuw %"class.marisa::scoped_ptr", ptr %5, i32 0, i32 0
  %7 = load ptr, ptr %4, align 8, !tbaa !17
  store ptr %7, ptr %6, align 8, !tbaa !10
  ret void
}

; Function Attrs: mustprogress nounwind uwtable
define linkonce_odr void @_ZN6marisa9ExceptionC2EPKci18marisa_error_code_S2_(ptr noundef nonnull align 8 dereferenceable(32) %0, ptr noundef %1, i32 noundef %2, i32 noundef %3, ptr noundef %4) unnamed_addr #5 comdat align 2 {
  %6 = alloca ptr, align 8
  %7 = alloca ptr, align 8
  %8 = alloca i32, align 4
  %9 = alloca i32, align 4
  %10 = alloca ptr, align 8
  store ptr %0, ptr %6, align 8, !tbaa !18
  store ptr %1, ptr %7, align 8, !tbaa !20
  store i32 %2, ptr %8, align 4, !tbaa !15
  store i32 %3, ptr %9, align 4, !tbaa !22
  store ptr %4, ptr %10, align 8, !tbaa !20
  %11 = load ptr, ptr %6, align 8
  call void @_ZNSt9exceptionC2Ev(ptr noundef nonnull align 8 dereferenceable(8) %11) #3
  store ptr getelementptr inbounds inrange(-16, 24) ({ [5 x ptr] }, ptr @_ZTVN6marisa9ExceptionE, i32 0, i32 0, i32 2), ptr %11, align 8, !tbaa !24
  %12 = getelementptr inbounds nuw %"class.marisa::Exception", ptr %11, i32 0, i32 1
  %13 = load ptr, ptr %7, align 8, !tbaa !20
  store ptr %13, ptr %12, align 8, !tbaa !26
  %14 = getelementptr inbounds nuw %"class.marisa::Exception", ptr %11, i32 0, i32 2
  %15 = load i32, ptr %8, align 4, !tbaa !15
  store i32 %15, ptr %14, align 8, !tbaa !29
  %16 = getelementptr inbounds nuw %"class.marisa::Exception", ptr %11, i32 0, i32 3
  %17 = load i32, ptr %9, align 4, !tbaa !22
  store i32 %17, ptr %16, align 4, !tbaa !30
  %18 = getelementptr inbounds nuw %"class.marisa::Exception", ptr %11, i32 0, i32 4
  %19 = load ptr, ptr %10, align 8, !tbaa !20
  store ptr %19, ptr %18, align 8, !tbaa !31
  ret void
}

; Function Attrs: mustprogress uwtable
define void @_ZN6marisa4Trie4loadEPKc(ptr noundef nonnull align 8 dereferenceable(8) %0, ptr noundef %1) #4 align 2 personality ptr @__gxx_personality_v0 {
  %3 = alloca ptr, align 8
  %4 = alloca ptr, align 8
  %5 = alloca ptr, align 8
  %6 = alloca i1, align 1
  %7 = alloca ptr, align 8
  %8 = alloca i32, align 4
  %9 = alloca %"class.marisa::scoped_ptr", align 8
  %10 = alloca ptr, align 8
  %11 = alloca i1, align 1
  %12 = alloca ptr, align 8
  %13 = alloca i1, align 1
  %14 = alloca %"class.marisa::grimoire::io::Reader", align 8
  store ptr %0, ptr %3, align 8, !tbaa !3
  store ptr %1, ptr %4, align 8, !tbaa !20
  %15 = load ptr, ptr %3, align 8
  %16 = load ptr, ptr %4, align 8, !tbaa !20
  %17 = icmp eq ptr %16, null
  store i1 false, ptr %6, align 1
  br i1 %17, label %18, label %22

18:                                               ; preds = %2
  %19 = call ptr @__cxa_allocate_exception(i64 32) #3
  store ptr %19, ptr %5, align 8
  store i1 true, ptr %6, align 1
  invoke void @_ZN6marisa9ExceptionC2EPKci18marisa_error_code_S2_(ptr noundef nonnull align 8 dereferenceable(32) %19, ptr noundef @.str, i32 noundef 45, i32 noundef 2, ptr noundef @.str.6)
          to label %20 unwind label %45

20:                                               ; preds = %18
  call void @__cxa_throw(ptr %19, ptr @_ZTIN6marisa9ExceptionE, ptr @_ZNSt9exceptionD2Ev) #12
  unreachable

21:                                               ; No predecessors!
  br label %22

22:                                               ; preds = %21, %2
  call void @llvm.lifetime.start.p0(i64 8, ptr %9) #3
  %23 = call noalias noundef ptr @_ZnwmRKSt9nothrow_t(i64 noundef 1136, ptr noundef nonnull align 1 dereferenceable(1) @_ZSt7nothrow) #11
  %24 = icmp eq ptr %23, null
  store i1 false, ptr %11, align 1
  br i1 %24, label %27, label %25

25:                                               ; preds = %22
  store ptr %23, ptr %10, align 8
  store i1 true, ptr %11, align 1
  invoke void @_ZN6marisa8grimoire4trie9LoudsTrieC1Ev(ptr noundef nonnull align 8 dereferenceable(1136) %23)
          to label %26 unwind label %53

26:                                               ; preds = %25
  br label %27

27:                                               ; preds = %26, %22
  %28 = phi ptr [ %23, %26 ], [ null, %22 ]
  call void @_ZN6marisa10scoped_ptrINS_8grimoire4trie9LoudsTrieEEC2EPS3_(ptr noundef nonnull align 8 dereferenceable(8) %9, ptr noundef %28)
  store i1 false, ptr %13, align 1
  %29 = invoke noundef ptr @_ZNK6marisa10scoped_ptrINS_8grimoire4trie9LoudsTrieEE3getEv(ptr noundef nonnull align 8 dereferenceable(8) %9)
          to label %30 unwind label %61

30:                                               ; preds = %27
  %31 = icmp eq ptr %29, null
  br i1 %31, label %32, label %36

32:                                               ; preds = %30
  %33 = call ptr @__cxa_allocate_exception(i64 32) #3
  store ptr %33, ptr %12, align 8
  store i1 true, ptr %13, align 1
  invoke void @_ZN6marisa9ExceptionC2EPKci18marisa_error_code_S2_(ptr noundef nonnull align 8 dereferenceable(32) %33, ptr noundef @.str, i32 noundef 48, i32 noundef 8, ptr noundef @.str.7)
          to label %34 unwind label %65

34:                                               ; preds = %32
  invoke void @__cxa_throw(ptr %33, ptr @_ZTIN6marisa9ExceptionE, ptr @_ZNSt9exceptionD2Ev) #12
          to label %89 unwind label %61

35:                                               ; No predecessors!
  br label %36

36:                                               ; preds = %35, %30
  call void @llvm.lifetime.start.p0(i64 32, ptr %14) #3
  invoke void @_ZN6marisa8grimoire2io6ReaderC1Ev(ptr noundef nonnull align 8 dereferenceable(25) %14)
          to label %37 unwind label %73

37:                                               ; preds = %36
  %38 = load ptr, ptr %4, align 8, !tbaa !20
  invoke void @_ZN6marisa8grimoire2io6Reader4openEPKc(ptr noundef nonnull align 8 dereferenceable(25) %14, ptr noundef %38)
          to label %39 unwind label %77

39:                                               ; preds = %37
  %40 = invoke noundef ptr @_ZNK6marisa10scoped_ptrINS_8grimoire4trie9LoudsTrieEEptEv(ptr noundef nonnull align 8 dereferenceable(8) %9)
          to label %41 unwind label %77

41:                                               ; preds = %39
  invoke void @_ZN6marisa8grimoire4trie9LoudsTrie4readERNS0_2io6ReaderE(ptr noundef nonnull align 8 dereferenceable(1136) %40, ptr noundef nonnull align 8 dereferenceable(25) %14)
          to label %42 unwind label %77

42:                                               ; preds = %41
  %43 = getelementptr inbounds nuw %"class.marisa::Trie", ptr %15, i32 0, i32 0
  invoke void @_ZN6marisa10scoped_ptrINS_8grimoire4trie9LoudsTrieEE4swapERS4_(ptr noundef nonnull align 8 dereferenceable(8) %43, ptr noundef nonnull align 8 dereferenceable(8) %9)
          to label %44 unwind label %77

44:                                               ; preds = %42
  call void @_ZN6marisa8grimoire2io6ReaderD1Ev(ptr noundef nonnull align 8 dereferenceable(25) %14) #3
  call void @llvm.lifetime.end.p0(i64 32, ptr %14) #3
  call void @_ZN6marisa10scoped_ptrINS_8grimoire4trie9LoudsTrieEED2Ev(ptr noundef nonnull align 8 dereferenceable(8) %9) #3
  call void @llvm.lifetime.end.p0(i64 8, ptr %9) #3
  ret void

45:                                               ; preds = %18
  %46 = landingpad { ptr, i32 }
          cleanup
  %47 = extractvalue { ptr, i32 } %46, 0
  store ptr %47, ptr %7, align 8
  %48 = extractvalue { ptr, i32 } %46, 1
  store i32 %48, ptr %8, align 4
  %49 = load i1, ptr %6, align 1
  br i1 %49, label %50, label %52

50:                                               ; preds = %45
  %51 = load ptr, ptr %5, align 8
  call void @__cxa_free_exception(ptr %51) #3
  br label %52

52:                                               ; preds = %50, %45
  br label %84

53:                                               ; preds = %25
  %54 = landingpad { ptr, i32 }
          cleanup
  %55 = extractvalue { ptr, i32 } %54, 0
  store ptr %55, ptr %7, align 8
  %56 = extractvalue { ptr, i32 } %54, 1
  store i32 %56, ptr %8, align 4
  %57 = load i1, ptr %11, align 1
  br i1 %57, label %58, label %60

58:                                               ; preds = %53
  %59 = load ptr, ptr %10, align 8
  call void @_ZdlPvRKSt9nothrow_t(ptr noundef %59, ptr noundef nonnull align 1 dereferenceable(1) @_ZSt7nothrow) #10
  br label %60

60:                                               ; preds = %58, %53
  br label %83

61:                                               ; preds = %34, %27
  %62 = landingpad { ptr, i32 }
          cleanup
  %63 = extractvalue { ptr, i32 } %62, 0
  store ptr %63, ptr %7, align 8
  %64 = extractvalue { ptr, i32 } %62, 1
  store i32 %64, ptr %8, align 4
  br label %82

65:                                               ; preds = %32
  %66 = landingpad { ptr, i32 }
          cleanup
  %67 = extractvalue { ptr, i32 } %66, 0
  store ptr %67, ptr %7, align 8
  %68 = extractvalue { ptr, i32 } %66, 1
  store i32 %68, ptr %8, align 4
  %69 = load i1, ptr %13, align 1
  br i1 %69, label %70, label %72

70:                                               ; preds = %65
  %71 = load ptr, ptr %12, align 8
  call void @__cxa_free_exception(ptr %71) #3
  br label %72

72:                                               ; preds = %70, %65
  br label %82

73:                                               ; preds = %36
  %74 = landingpad { ptr, i32 }
          cleanup
  %75 = extractvalue { ptr, i32 } %74, 0
  store ptr %75, ptr %7, align 8
  %76 = extractvalue { ptr, i32 } %74, 1
  store i32 %76, ptr %8, align 4
  br label %81

77:                                               ; preds = %42, %41, %39, %37
  %78 = landingpad { ptr, i32 }
          cleanup
  %79 = extractvalue { ptr, i32 } %78, 0
  store ptr %79, ptr %7, align 8
  %80 = extractvalue { ptr, i32 } %78, 1
  store i32 %80, ptr %8, align 4
  call void @_ZN6marisa8grimoire2io6ReaderD1Ev(ptr noundef nonnull align 8 dereferenceable(25) %14) #3
  br label %81

81:                                               ; preds = %77, %73
  call void @llvm.lifetime.end.p0(i64 32, ptr %14) #3
  br label %82

82:                                               ; preds = %81, %72, %61
  call void @_ZN6marisa10scoped_ptrINS_8grimoire4trie9LoudsTrieEED2Ev(ptr noundef nonnull align 8 dereferenceable(8) %9) #3
  br label %83

83:                                               ; preds = %82, %60
  call void @llvm.lifetime.end.p0(i64 8, ptr %9) #3
  br label %84

84:                                               ; preds = %83, %52
  %85 = load ptr, ptr %7, align 8
  %86 = load i32, ptr %8, align 4
  %87 = insertvalue { ptr, i32 } poison, ptr %85, 0
  %88 = insertvalue { ptr, i32 } %87, i32 %86, 1
  resume { ptr, i32 } %88

89:                                               ; preds = %34
  unreachable
}