; Function Attrs: mustprogress uwtable
define void @_ZN6marisa4Trie4loadEPKc(ptr noundef nonnull align 8 captures(none) dereferenceable(8) %0, ptr noundef %1) local_unnamed_addr #5 align 2 personality ptr @__gxx_personality_v0 {
  %3 = alloca %"class.marisa::scoped_ptr", align 8
  %4 = alloca %"class.marisa::grimoire::io::Reader", align 8
  %5 = icmp eq ptr %1, null
  br i1 %5, label %6, label %12

6:                                                ; preds = %2
  %7 = tail call ptr @__cxa_allocate_exception(i64 32) #12
  store ptr getelementptr inbounds nuw inrange(-16, 24) (i8, ptr @_ZTVN6marisa9ExceptionE, i64 16), ptr %7, align 8, !tbaa !9
  %8 = getelementptr inbounds nuw i8, ptr %7, i64 8
  store ptr @.str, ptr %8, align 8, !tbaa !11
  %9 = getelementptr inbounds nuw i8, ptr %7, i64 16
  store i32 45, ptr %9, align 8, !tbaa !17
  %10 = getelementptr inbounds nuw i8, ptr %7, i64 20
  store i32 2, ptr %10, align 4, !tbaa !18
  %11 = getelementptr inbounds nuw i8, ptr %7, i64 24
  store ptr @.str.6, ptr %11, align 8, !tbaa !19
  tail call void @__cxa_throw(ptr nonnull %7, ptr nonnull @_ZTIN6marisa9ExceptionE, ptr nonnull @_ZNSt9exceptionD2Ev) #15
  unreachable

12:                                               ; preds = %2
  call void @llvm.lifetime.start.p0(i64 8, ptr nonnull %3) #12
  %13 = tail call noalias noundef dereferenceable_or_null(1136) ptr @_ZnwmRKSt9nothrow_t(i64 noundef 1136, ptr noundef nonnull align 1 dereferenceable(1) @_ZSt7nothrow) #14
  %14 = icmp eq ptr %13, null
  br i1 %14, label %16, label %15

15:                                               ; preds = %12
  invoke void @_ZN6marisa8grimoire4trie9LoudsTrieC1Ev(ptr noundef nonnull align 8 dereferenceable(1136) %13)
          to label %22 unwind label %29

16:                                               ; preds = %12
  store ptr null, ptr %3, align 8, !tbaa !3
  %17 = tail call ptr @__cxa_allocate_exception(i64 32) #12
  store ptr getelementptr inbounds nuw inrange(-16, 24) (i8, ptr @_ZTVN6marisa9ExceptionE, i64 16), ptr %17, align 8, !tbaa !9
  %18 = getelementptr inbounds nuw i8, ptr %17, i64 8
  store ptr @.str, ptr %18, align 8, !tbaa !11
  %19 = getelementptr inbounds nuw i8, ptr %17, i64 16
  store i32 48, ptr %19, align 8, !tbaa !17
  %20 = getelementptr inbounds nuw i8, ptr %17, i64 20
  store i32 8, ptr %20, align 4, !tbaa !18
  %21 = getelementptr inbounds nuw i8, ptr %17, i64 24
  store ptr @.str.7, ptr %21, align 8, !tbaa !19
  invoke void @__cxa_throw(ptr nonnull %17, ptr nonnull @_ZTIN6marisa9ExceptionE, ptr nonnull @_ZNSt9exceptionD2Ev) #15
          to label %40 unwind label %31

22:                                               ; preds = %15
  store ptr %13, ptr %3, align 8, !tbaa !3
  call void @llvm.lifetime.start.p0(i64 32, ptr nonnull %4) #12
  invoke void @_ZN6marisa8grimoire2io6ReaderC1Ev(ptr noundef nonnull align 8 dereferenceable(25) %4)
          to label %23 unwind label %33

23:                                               ; preds = %22
  invoke void @_ZN6marisa8grimoire2io6Reader4openEPKc(ptr noundef nonnull align 8 dereferenceable(25) %4, ptr noundef nonnull %1)
          to label %24 unwind label %35

24:                                               ; preds = %23
  invoke void @_ZN6marisa8grimoire4trie9LoudsTrie4readERNS0_2io6ReaderE(ptr noundef nonnull align 8 dereferenceable(1136) %13, ptr noundef nonnull align 8 dereferenceable(25) %4)
          to label %25 unwind label %35

25:                                               ; preds = %24
  %26 = load ptr, ptr %0, align 8, !tbaa !20
  store ptr %13, ptr %0, align 8, !tbaa !20
  call void @_ZN6marisa8grimoire2io6ReaderD1Ev(ptr noundef nonnull align 8 dereferenceable(25) %4) #12
  call void @llvm.lifetime.end.p0(i64 32, ptr nonnull %4) #12
  %27 = icmp eq ptr %26, null
  br i1 %27, label %_ZN6marisa10scoped_ptrINS_8grimoire4trie9LoudsTrieEED2Ev.exit, label %28

28:                                               ; preds = %25
  call void @_ZN6marisa8grimoire4trie9LoudsTrieD1Ev(ptr noundef nonnull align 8 dereferenceable(1136) %26) #12
  call void @_ZdlPvm(ptr noundef nonnull %26, i64 noundef 1136) #13
  br label %_ZN6marisa10scoped_ptrINS_8grimoire4trie9LoudsTrieEED2Ev.exit

_ZN6marisa10scoped_ptrINS_8grimoire4trie9LoudsTrieEED2Ev.exit: ; preds = %25, %28
  call void @llvm.lifetime.end.p0(i64 8, ptr nonnull %3) #12
  ret void

29:                                               ; preds = %15
  %30 = landingpad { ptr, i32 }
          cleanup
  tail call void @_ZdlPvRKSt9nothrow_t(ptr noundef nonnull %13, ptr noundef nonnull align 1 dereferenceable(1) @_ZSt7nothrow) #13
  br label %39

31:                                               ; preds = %16
  %32 = landingpad { ptr, i32 }
          cleanup
  br label %38

33:                                               ; preds = %22
  %34 = landingpad { ptr, i32 }
          cleanup
  br label %37

35:                                               ; preds = %24, %23
  %36 = landingpad { ptr, i32 }
          cleanup
  call void @_ZN6marisa8grimoire2io6ReaderD1Ev(ptr noundef nonnull align 8 dereferenceable(25) %4) #12
  br label %37

37:                                               ; preds = %35, %33
  %.pn = phi { ptr, i32 } [ %36, %35 ], [ %34, %33 ]
  call void @llvm.lifetime.end.p0(i64 32, ptr nonnull %4) #12
  br label %38

38:                                               ; preds = %37, %31
  %.pn12 = phi { ptr, i32 } [ %32, %31 ], [ %.pn, %37 ]
  call void @_ZN6marisa10scoped_ptrINS_8grimoire4trie9LoudsTrieEED2Ev(ptr noundef nonnull align 8 dereferenceable(8) %3) #12
  br label %39

39:                                               ; preds = %29, %38
  %.pn12.pn = phi { ptr, i32 } [ %.pn12, %38 ], [ %30, %29 ]
  call void @llvm.lifetime.end.p0(i64 8, ptr nonnull %3) #12
  resume { ptr, i32 } %.pn12.pn

40:                                               ; preds = %16
  unreachable
}